(dp1
S'LOSS_METHOD'
p2
S'wgan'
p3
sS'NETWORK'
p4
S'pix2pix_new2'
p5
sS'AUGMENT'
p6
I0
sS'L1_WEIGHT'
p7
F100
sS'LEARNING_RATE'
p8
F0.0001
sS'IG_WEIGHT'
p9
F1
sS'EPOCHS'
p10
I100
sS'BATCH_SIZE'
p11
I32
sS'DATA'
p12
S'underwater_imagenet'
p13
s.